; Function Attrs: nounwind ssp uwtable
define dso_local i32 @crypto_box_curve25519xchacha20poly1305_open_detached(ptr noundef %0, ptr noundef nonnull %1, ptr noundef nonnull %2, i64 noundef %3, ptr noundef nonnull %4, ptr noundef nonnull %5, ptr noundef nonnull %6) local_unnamed_addr #0 {
  %8 = alloca [32 x i8], align 16
  %9 = alloca [32 x i8], align 16
  call void @llvm.lifetime.start.p0(i64 32, ptr nonnull %9) #6
  call void @llvm.lifetime.start.p0(i64 32, ptr nonnull %8) #6
  %10 = call i32 @crypto_scalarmult_curve25519(ptr noundef nonnull %8, ptr noundef nonnull %6, ptr noundef nonnull %5) #6
  %.not.i = icmp eq i32 %10, 0
  br i1 %.not.i, label %crypto_box_curve25519xchacha20poly1305_beforenm.exit, label %crypto_box_curve25519xchacha20poly1305_beforenm.exit.thread

crypto_box_curve25519xchacha20poly1305_beforenm.exit.thread: ; preds = %7
  call void @llvm.lifetime.end.p0(i64 32, ptr nonnull %8) #6
  br label %14

crypto_box_curve25519xchacha20poly1305_beforenm.exit: ; preds = %7
  %11 = call i32 @crypto_core_hchacha20(ptr noundef nonnull %9, ptr noundef nonnull @crypto_box_curve25519xchacha20poly1305_beforenm.zero, ptr noundef nonnull %8, ptr noundef null) #6
  call void @llvm.lifetime.end.p0(i64 32, ptr nonnull %8) #6
  %.not = icmp eq i32 %11, 0
  br i1 %.not, label %12, label %14

12:                                               ; preds = %crypto_box_curve25519xchacha20poly1305_beforenm.exit
  %13 = call i32 @crypto_secretbox_xchacha20poly1305_open_detached(ptr noundef %0, ptr noundef nonnull %1, ptr noundef nonnull %2, i64 noundef %3, ptr noundef nonnull %4, ptr noundef nonnull %9) #6
  call void @sodium_memzero(ptr noundef nonnull %9, i64 noundef 32) #6
  br label %14

14:                                               ; preds = %crypto_box_curve25519xchacha20poly1305_beforenm.exit.thread, %crypto_box_curve25519xchacha20poly1305_beforenm.exit, %12
  %.0 = phi i32 [ %13, %12 ], [ -1, %crypto_box_curve25519xchacha20poly1305_beforenm.exit ], [ -1, %crypto_box_curve25519xchacha20poly1305_beforenm.exit.thread ]
  call void @llvm.lifetime.end.p0(i64 32, ptr nonnull %9) #6
  ret i32 %.0
}